; Function Attrs: mustprogress uwtable
define void @_ZN15b2RevoluteJoint4DumpEv(ptr nocapture noundef nonnull readonly align 8 dereferenceable(272) %this) unnamed_addr #1 align 2 {
entry:
  %m_bodyA = getelementptr inbounds i8, ptr %this, i64 96
  %0 = load ptr, ptr %m_bodyA, align 8
  %m_islandIndex = getelementptr inbounds i8, ptr %0, i64 8
  %1 = load i32, ptr %m_islandIndex, align 8
  %m_bodyB = getelementptr inbounds i8, ptr %this, i64 104
  %2 = load ptr, ptr %m_bodyB, align 8
  %m_islandIndex2 = getelementptr inbounds i8, ptr %2, i64 8
  %3 = load i32, ptr %m_islandIndex2, align 8
  tail call void (ptr, ...) @_Z6b2DumpPKcz(ptr noundef nonnull @.str)
  tail call void (ptr, ...) @_Z6b2DumpPKcz(ptr noundef nonnull @.str.1, i32 noundef %1)
  tail call void (ptr, ...) @_Z6b2DumpPKcz(ptr noundef nonnull @.str.2, i32 noundef %3)
  %m_collideConnected = getelementptr inbounds i8, ptr %this, i64 117
  %4 = load i8, ptr %m_collideConnected, align 1
  %5 = and i8 %4, 1
  %conv = zext nneg i8 %5 to i32
  tail call void (ptr, ...) @_Z6b2DumpPKcz(ptr noundef nonnull @.str.3, i32 noundef %conv)
  %m_localAnchorA = getelementptr inbounds i8, ptr %this, i64 128
  %6 = load float, ptr %m_localAnchorA, align 8
  %conv3 = fpext float %6 to double
  %y = getelementptr inbounds i8, ptr %this, i64 132
  %7 = load float, ptr %y, align 4
  %conv5 = fpext float %7 to double
  tail call void (ptr, ...) @_Z6b2DumpPKcz(ptr noundef nonnull @.str.4, double noundef %conv3, double noundef %conv5)
  %m_localAnchorB = getelementptr inbounds i8, ptr %this, i64 136
  %8 = load float, ptr %m_localAnchorB, align 8
  %conv7 = fpext float %8 to double
  %y9 = getelementptr inbounds i8, ptr %this, i64 140
  %9 = load float, ptr %y9, align 4
  %conv10 = fpext float %9 to double
  tail call void (ptr, ...) @_Z6b2DumpPKcz(ptr noundef nonnull @.str.5, double noundef %conv7, double noundef %conv10)
  %m_referenceAngle = getelementptr inbounds i8, ptr %this, i64 180
  %10 = load float, ptr %m_referenceAngle, align 4
  %conv11 = fpext float %10 to double
  tail call void (ptr, ...) @_Z6b2DumpPKcz(ptr noundef nonnull @.str.6, double noundef %conv11)
  %m_enableLimit = getelementptr inbounds i8, ptr %this, i64 176
  %11 = load i8, ptr %m_enableLimit, align 8
  %12 = and i8 %11, 1
  %conv13 = zext nneg i8 %12 to i32
  tail call void (ptr, ...) @_Z6b2DumpPKcz(ptr noundef nonnull @.str.7, i32 noundef %conv13)
  %m_lowerAngle = getelementptr inbounds i8, ptr %this, i64 184
  %13 = load float, ptr %m_lowerAngle, align 8
  %conv14 = fpext float %13 to double
  tail call void (ptr, ...) @_Z6b2DumpPKcz(ptr noundef nonnull @.str.8, double noundef %conv14)
  %m_upperAngle = getelementptr inbounds i8, ptr %this, i64 188
  %14 = load float, ptr %m_upperAngle, align 4
  %conv15 = fpext float %14 to double
  tail call void (ptr, ...) @_Z6b2DumpPKcz(ptr noundef nonnull @.str.9, double noundef %conv15)
  %m_enableMotor = getelementptr inbounds i8, ptr %this, i64 164
  %15 = load i8, ptr %m_enableMotor, align 4
  %16 = and i8 %15, 1
  %conv17 = zext nneg i8 %16 to i32
  tail call void (ptr, ...) @_Z6b2DumpPKcz(ptr noundef nonnull @.str.10, i32 noundef %conv17)
  %m_motorSpeed = getelementptr inbounds i8, ptr %this, i64 172
  %17 = load float, ptr %m_motorSpeed, align 4
  %conv18 = fpext float %17 to double
  tail call void (ptr, ...) @_Z6b2DumpPKcz(ptr noundef nonnull @.str.11, double noundef %conv18)
  %m_maxMotorTorque = getelementptr inbounds i8, ptr %this, i64 168
  %18 = load float, ptr %m_maxMotorTorque, align 8
  %conv19 = fpext float %18 to double
  tail call void (ptr, ...) @_Z6b2DumpPKcz(ptr noundef nonnull @.str.12, double noundef %conv19)
  %m_index = getelementptr inbounds i8, ptr %this, i64 112
  %19 = load i32, ptr %m_index, align 8
  tail call void (ptr, ...) @_Z6b2DumpPKcz(ptr noundef nonnull @.str.13, i32 noundef %19)
  ret void
}